target datalayout = "e-m:e-p270:32:32-p271:32:32-p272:64:64-i64:64-i128:128-f80:128-n8:16:32:64-S128"
target triple = "x86_64-pc-linux-gnu"

%class.DCmdParser = type { ptr, ptr }
%class.GenDCmdArgument = type <{ ptr, ptr, ptr, ptr, ptr, ptr, i8, i8, i8, [5 x i8] }>
%class.ThreadShadow = type <{ ptr, ptr, ptr, i32, [4 x i8] }>

; Function Attrs: mustprogress nounwind uwtable
define linkonce_odr hidden noundef ptr @_ZN15GenDCmdArgument4nextEv(ptr noundef nonnull align 8 dereferenceable(51) %0) #1 comdat align 2 {
  %2 = alloca ptr, align 8
  store ptr %0, ptr %2, align 8
  %3 = load ptr, ptr %2, align 8
  %4 = getelementptr inbounds %class.GenDCmdArgument, ptr %3, i32 0, i32 1
  %5 = load ptr, ptr %4, align 8
  ret ptr %5
}

; Function Attrs: mustprogress nounwind uwtable
define linkonce_odr hidden noundef zeroext i1 @_ZNK12ThreadShadow21has_pending_exceptionEv(ptr noundef nonnull align 8 dereferenceable(28) %0) #1 comdat align 2 {
  %2 = alloca ptr, align 8
  store ptr %0, ptr %2, align 8
  %3 = load ptr, ptr %2, align 8
  %4 = getelementptr inbounds %class.ThreadShadow, ptr %3, i32 0, i32 1
  %5 = load ptr, ptr %4, align 8
  %6 = icmp ne ptr %5, null
  ret i1 %6
}

; Function Attrs: mustprogress nounwind uwtable
define hidden void @_ZN10DCmdParser5resetEP10JavaThread(ptr noundef nonnull align 8 dereferenceable(16) %0, ptr noundef %1) #1 align 2 {
  %3 = alloca ptr, align 8
  %4 = alloca ptr, align 8
  %5 = alloca ptr, align 8
  store ptr %0, ptr %3, align 8
  store ptr %1, ptr %4, align 8
  %6 = load ptr, ptr %3, align 8
  %7 = getelementptr inbounds %class.DCmdParser, ptr %6, i32 0, i32 1
  %8 = load ptr, ptr %7, align 8
  store ptr %8, ptr %5, align 8
  br label %9

9:                                                ; preds = %21, %2
  %10 = load ptr, ptr %5, align 8
  %11 = icmp ne ptr %10, null
  br i1 %11, label %12, label %24

12:                                               ; preds = %9
  %13 = load ptr, ptr %5, align 8
  %14 = load ptr, ptr %4, align 8
  %15 = load ptr, ptr %13, align 8
  %16 = getelementptr inbounds ptr, ptr %15, i64 2
  %17 = load ptr, ptr %16, align 8
  call void %17(ptr noundef nonnull align 8 dereferenceable(51) %13, ptr noundef %14)
  %18 = load ptr, ptr %4, align 8
  %19 = call noundef zeroext i1 @_ZNK12ThreadShadow21has_pending_exceptionEv(ptr noundef nonnull align 8 dereferenceable(28) %18)
  br i1 %19, label %20, label %21

20:                                               ; preds = %12
  br label %42

21:                                               ; preds = %12
  %22 = load ptr, ptr %5, align 8
  %23 = call noundef ptr @_ZN15GenDCmdArgument4nextEv(ptr noundef nonnull align 8 dereferenceable(51) %22)
  store ptr %23, ptr %5, align 8
  br label %9, !llvm.loop !23

24:                                               ; preds = %9
  %25 = getelementptr inbounds %class.DCmdParser, ptr %6, i32 0, i32 0
  %26 = load ptr, ptr %25, align 8
  store ptr %26, ptr %5, align 8
  br label %27

27:                                               ; preds = %39, %24
  %28 = load ptr, ptr %5, align 8
  %29 = icmp ne ptr %28, null
  br i1 %29, label %30, label %42

30:                                               ; preds = %27
  %31 = load ptr, ptr %5, align 8
  %32 = load ptr, ptr %4, align 8
  %33 = load ptr, ptr %31, align 8
  %34 = getelementptr inbounds ptr, ptr %33, i64 2
  %35 = load ptr, ptr %34, align 8
  call void %35(ptr noundef nonnull align 8 dereferenceable(51) %31, ptr noundef %32)
  %36 = load ptr, ptr %4, align 8
  %37 = call noundef zeroext i1 @_ZNK12ThreadShadow21has_pending_exceptionEv(ptr noundef nonnull align 8 dereferenceable(28) %36)
  br i1 %37, label %38, label %39

38:                                               ; preds = %30
  br label %42

39:                                               ; preds = %30
  %40 = load ptr, ptr %5, align 8
  %41 = call noundef ptr @_ZN15GenDCmdArgument4nextEv(ptr noundef nonnull align 8 dereferenceable(51) %40)
  store ptr %41, ptr %5, align 8
  br label %27, !llvm.loop !24

42:                                               ; preds = %38, %27, %20
  ret void
}