; Function Attrs: mustprogress nounwind uwtable
define hidden void @_ZN10DCmdParser5resetEP10JavaThread(ptr nocapture noundef nonnull readonly align 8 dereferenceable(16) %0, ptr noundef %1) local_unnamed_addr #2 align 2 {
  %3 = getelementptr inbounds i8, ptr %1, i64 8
  br label %4

4:                                                ; preds = %5, %2
  %.pn = phi ptr [ %0, %2 ], [ %.0, %5 ]
  %.0.in = getelementptr inbounds i8, ptr %.pn, i64 8
  %.0 = load ptr, ptr %.0.in, align 8
  %.not = icmp eq ptr %.0, null
  br i1 %.not, label %.preheader, label %5

.preheader:                                       ; preds = %4
  %.115 = load ptr, ptr %0, align 8
  %.not1116 = icmp eq ptr %.115, null
  br i1 %.not1116, label %.loopexit, label %.lr.ph

5:                                                ; preds = %4
  %6 = load ptr, ptr %.0, align 8
  %7 = getelementptr inbounds i8, ptr %6, i64 16
  %8 = load ptr, ptr %7, align 8
  tail call void %8(ptr noundef nonnull align 8 dereferenceable(51) %.0, ptr noundef %1) #19
  %9 = load ptr, ptr %3, align 8
  %.not12 = icmp eq ptr %9, null
  br i1 %.not12, label %4, label %.loopexit, !llvm.loop !23

10:                                               ; preds = %.lr.ph
  %11 = getelementptr inbounds i8, ptr %.117, i64 8
  %.1 = load ptr, ptr %11, align 8
  %.not11 = icmp eq ptr %.1, null
  br i1 %.not11, label %.loopexit, label %.lr.ph, !llvm.loop !24

.lr.ph:                                           ; preds = %.preheader, %10
  %.117 = phi ptr [ %.1, %10 ], [ %.115, %.preheader ]
  %12 = load ptr, ptr %.117, align 8
  %13 = getelementptr inbounds i8, ptr %12, i64 16
  %14 = load ptr, ptr %13, align 8
  tail call void %14(ptr noundef nonnull align 8 dereferenceable(51) %.117, ptr noundef %1) #19
  %15 = load ptr, ptr %3, align 8
  %.not13 = icmp eq ptr %15, null
  br i1 %.not13, label %10, label %.loopexit

.loopexit:                                        ; preds = %5, %10, %.lr.ph, %.preheader
  ret void
}